; Function Attrs: mustprogress uwtable
define void @_ZN10OpenSubdiv6v3_6_03Vtr8internal13TriRefinement34populateFaceVertexCountsAndOffsetsEv(ptr nocapture noundef nonnull readonly align 8 dereferenceable(528) %0) local_unnamed_addr #1 align 2 personality ptr @__gxx_personality_v0 {
  %2 = alloca i32, align 4
  %3 = getelementptr inbounds nuw i8, ptr %0, i64 16
  %4 = load ptr, ptr %3, align 8
  %5 = getelementptr inbounds nuw i8, ptr %4, i64 24
  %6 = load i32, ptr %4, align 8
  %7 = shl nsw i32 %6, 1
  %8 = sext i32 %7 to i64
  store i32 3, ptr %2, align 4
  %9 = getelementptr inbounds i8, ptr %4, i64 32
  %10 = load ptr, ptr %9, align 8
  %11 = load ptr, ptr %5, align 8
  %12 = ptrtoint ptr %10 to i64
  %13 = ptrtoint ptr %11 to i64
  %14 = sub i64 %12, %13
  %15 = ashr exact i64 %14, 2
  %16 = icmp ult i64 %15, %8
  br i1 %16, label %17, label %19

17:                                               ; preds = %1
  %18 = sub nuw nsw i64 %8, %15
  call void @_ZNSt6vectorIiSaIiEE14_M_fill_insertEN9__gnu_cxx17__normal_iteratorIPiS1_EEmRKi(ptr noundef nonnull align 8 dereferenceable(24) %5, ptr %10, i64 noundef %18, ptr noundef nonnull align 4 dereferenceable(4) %2)
  br label %_ZNSt6vectorIiSaIiEE6resizeEmRKi.exit

19:                                               ; preds = %1
  %20 = icmp ugt i64 %15, %8
  br i1 %20, label %21, label %_ZNSt6vectorIiSaIiEE6resizeEmRKi.exit

21:                                               ; preds = %19
  %22 = getelementptr inbounds i32, ptr %11, i64 %8
  %.not.i.i = icmp eq ptr %10, %22
  br i1 %.not.i.i, label %_ZNSt6vectorIiSaIiEE6resizeEmRKi.exit, label %23

23:                                               ; preds = %21
  store ptr %22, ptr %9, align 8
  br label %_ZNSt6vectorIiSaIiEE6resizeEmRKi.exit

_ZNSt6vectorIiSaIiEE6resizeEmRKi.exit:            ; preds = %17, %19, %21, %23
  %24 = load ptr, ptr %3, align 8
  %25 = load i32, ptr %24, align 8
  %26 = icmp sgt i32 %25, 0
  br i1 %26, label %.lr.ph, label %._crit_edge

.lr.ph:                                           ; preds = %_ZNSt6vectorIiSaIiEE6resizeEmRKi.exit, %.lr.ph
  %indvars.iv = phi i64 [ %indvars.iv.next, %.lr.ph ], [ 0, %_ZNSt6vectorIiSaIiEE6resizeEmRKi.exit ]
  %27 = phi ptr [ %35, %.lr.ph ], [ %24, %_ZNSt6vectorIiSaIiEE6resizeEmRKi.exit ]
  %28 = getelementptr inbounds nuw i8, ptr %27, i64 24
  %29 = shl nuw nsw i64 %indvars.iv, 1
  %30 = or disjoint i64 %29, 1
  %31 = load ptr, ptr %28, align 8
  %32 = getelementptr inbounds i32, ptr %31, i64 %30
  %33 = trunc i64 %indvars.iv to i32
  %34 = mul i32 %33, 3
  store i32 %34, ptr %32, align 4
  %indvars.iv.next = add nuw nsw i64 %indvars.iv, 1
  %35 = load ptr, ptr %3, align 8
  %36 = load i32, ptr %35, align 8
  %37 = sext i32 %36 to i64
  %38 = icmp slt i64 %indvars.iv.next, %37
  br i1 %38, label %.lr.ph, label %._crit_edge, !llvm.loop !8

._crit_edge:                                      ; preds = %.lr.ph, %_ZNSt6vectorIiSaIiEE6resizeEmRKi.exit
  ret void
}